target datalayout = "e-m:e-p270:32:32-p271:32:32-p272:64:64-i64:64-i128:128-f80:128-n8:16:32:64-S128"
target triple = "x86_64-pc-linux-gnu"

%struct.LZWEncodeState = type { i32, i32, [16411 x %struct.Code], i32, i32, i32, %struct.PutBitContext, i32, i32, i32, i32, i32, i32 }
%struct.Code = type { i32, i32, i8 }
%struct.PutBitContext = type { i32, i32, ptr, ptr, ptr }

@.str.3 = private unnamed_addr constant [43 x i8] c"Internal error, put_bits buffer too small\0A\00", align 1

; Function Attrs: alwaysinline nounwind willreturn memory(none) uwtable
define internal i32 @av_bswap32(i32 noundef %0) #5 {
  %2 = alloca i32, align 4
  store i32 %0, ptr %2, align 4, !tbaa !11
  %3 = load i32, ptr %2, align 4, !tbaa !11
  %4 = shl i32 %3, 8
  %5 = and i32 %4, 65280
  %6 = load i32, ptr %2, align 4, !tbaa !11
  %7 = lshr i32 %6, 8
  %8 = and i32 %7, 255
  %9 = or i32 %5, %8
  %10 = shl i32 %9, 16
  %11 = load i32, ptr %2, align 4, !tbaa !11
  %12 = lshr i32 %11, 16
  %13 = shl i32 %12, 8
  %14 = and i32 %13, 65280
  %15 = load i32, ptr %2, align 4, !tbaa !11
  %16 = lshr i32 %15, 16
  %17 = lshr i32 %16, 8
  %18 = and i32 %17, 255
  %19 = or i32 %14, %18
  %20 = or i32 %10, %19
  ret i32 %20
}

; Function Attrs: inlinehint nounwind uwtable
define internal void @put_bits_no_assert(ptr noundef %0, i32 noundef %1, i32 noundef %2) #1 {
  %4 = alloca ptr, align 8
  %5 = alloca i32, align 4
  %6 = alloca i32, align 4
  %7 = alloca i32, align 4
  %8 = alloca i32, align 4
  store ptr %0, ptr %4, align 8, !tbaa !25
  store i32 %1, ptr %5, align 4, !tbaa !11
  store i32 %2, ptr %6, align 4, !tbaa !11
  call void @llvm.lifetime.start.p0(i64 4, ptr %7) #7
  call void @llvm.lifetime.start.p0(i64 4, ptr %8) #7
  %9 = load ptr, ptr %4, align 8, !tbaa !25
  %10 = getelementptr inbounds nuw %struct.PutBitContext, ptr %9, i32 0, i32 0
  %11 = load i32, ptr %10, align 8, !tbaa !31
  store i32 %11, ptr %7, align 4, !tbaa !11
  %12 = load ptr, ptr %4, align 8, !tbaa !25
  %13 = getelementptr inbounds nuw %struct.PutBitContext, ptr %12, i32 0, i32 1
  %14 = load i32, ptr %13, align 4, !tbaa !30
  store i32 %14, ptr %8, align 4, !tbaa !11
  %15 = load i32, ptr %5, align 4, !tbaa !11
  %16 = load i32, ptr %8, align 4, !tbaa !11
  %17 = icmp slt i32 %15, %16
  br i1 %17, label %18, label %27

18:                                               ; preds = %3
  %19 = load i32, ptr %7, align 4, !tbaa !11
  %20 = load i32, ptr %5, align 4, !tbaa !11
  %21 = shl i32 %19, %20
  %22 = load i32, ptr %6, align 4, !tbaa !11
  %23 = or i32 %21, %22
  store i32 %23, ptr %7, align 4, !tbaa !11
  %24 = load i32, ptr %5, align 4, !tbaa !11
  %25 = load i32, ptr %8, align 4, !tbaa !11
  %26 = sub nsw i32 %25, %24
  store i32 %26, ptr %8, align 4, !tbaa !11
  br label %65

27:                                               ; preds = %3
  %28 = load i32, ptr %8, align 4, !tbaa !11
  %29 = load i32, ptr %7, align 4, !tbaa !11
  %30 = shl i32 %29, %28
  store i32 %30, ptr %7, align 4, !tbaa !11
  %31 = load i32, ptr %6, align 4, !tbaa !11
  %32 = load i32, ptr %5, align 4, !tbaa !11
  %33 = load i32, ptr %8, align 4, !tbaa !11
  %34 = sub nsw i32 %32, %33
  %35 = lshr i32 %31, %34
  %36 = load i32, ptr %7, align 4, !tbaa !11
  %37 = or i32 %36, %35
  store i32 %37, ptr %7, align 4, !tbaa !11
  %38 = load ptr, ptr %4, align 8, !tbaa !25
  %39 = getelementptr inbounds nuw %struct.PutBitContext, ptr %38, i32 0, i32 4
  %40 = load ptr, ptr %39, align 8, !tbaa !28
  %41 = load ptr, ptr %4, align 8, !tbaa !25
  %42 = getelementptr inbounds nuw %struct.PutBitContext, ptr %41, i32 0, i32 3
  %43 = load ptr, ptr %42, align 8, !tbaa !29
  %44 = ptrtoint ptr %40 to i64
  %45 = ptrtoint ptr %43 to i64
  %46 = sub i64 %44, %45
  %47 = icmp uge i64 %46, 4
  br i1 %47, label %48, label %58

48:                                               ; preds = %27
  %49 = load i32, ptr %7, align 4, !tbaa !11
  %50 = call i32 @av_bswap32(i32 noundef %49) #8
  %51 = load ptr, ptr %4, align 8, !tbaa !25
  %52 = getelementptr inbounds nuw %struct.PutBitContext, ptr %51, i32 0, i32 3
  %53 = load ptr, ptr %52, align 8, !tbaa !29
  store i32 %50, ptr %53, align 1, !tbaa !32
  %54 = load ptr, ptr %4, align 8, !tbaa !25
  %55 = getelementptr inbounds nuw %struct.PutBitContext, ptr %54, i32 0, i32 3
  %56 = load ptr, ptr %55, align 8, !tbaa !29
  %57 = getelementptr inbounds nuw i8, ptr %56, i64 4
  store ptr %57, ptr %55, align 8, !tbaa !29
  br label %59

58:                                               ; preds = %27
  call void (ptr, i32, ptr, ...) @av_log(ptr noundef null, i32 noundef 16, ptr noundef @.str.3)
  br label %59

59:                                               ; preds = %58, %48
  %60 = load i32, ptr %5, align 4, !tbaa !11
  %61 = sub nsw i32 32, %60
  %62 = load i32, ptr %8, align 4, !tbaa !11
  %63 = add nsw i32 %62, %61
  store i32 %63, ptr %8, align 4, !tbaa !11
  %64 = load i32, ptr %6, align 4, !tbaa !11
  store i32 %64, ptr %7, align 4, !tbaa !11
  br label %65

65:                                               ; preds = %59, %18
  %66 = load i32, ptr %7, align 4, !tbaa !11
  %67 = load ptr, ptr %4, align 8, !tbaa !25
  %68 = getelementptr inbounds nuw %struct.PutBitContext, ptr %67, i32 0, i32 0
  store i32 %66, ptr %68, align 8, !tbaa !31
  %69 = load i32, ptr %8, align 4, !tbaa !11
  %70 = load ptr, ptr %4, align 8, !tbaa !25
  %71 = getelementptr inbounds nuw %struct.PutBitContext, ptr %70, i32 0, i32 1
  store i32 %69, ptr %71, align 4, !tbaa !30
  call void @llvm.lifetime.end.p0(i64 4, ptr %8) #7
  call void @llvm.lifetime.end.p0(i64 4, ptr %7) #7
  ret void
}

; Function Attrs: inlinehint nounwind uwtable
define internal void @put_bits(ptr noundef %0, i32 noundef %1, i32 noundef %2) #1 {
  %4 = alloca ptr, align 8
  %5 = alloca i32, align 4
  %6 = alloca i32, align 4
  store ptr %0, ptr %4, align 8, !tbaa !25
  store i32 %1, ptr %5, align 4, !tbaa !11
  store i32 %2, ptr %6, align 4, !tbaa !11
  %7 = load ptr, ptr %4, align 8, !tbaa !25
  %8 = load i32, ptr %5, align 4, !tbaa !11
  %9 = load i32, ptr %6, align 4, !tbaa !11
  call void @put_bits_no_assert(ptr noundef %7, i32 noundef %8, i32 noundef %9)
  ret void
}

; Function Attrs: inlinehint nounwind uwtable
define internal void @put_bits_le(ptr noundef %0, i32 noundef %1, i32 noundef %2) #1 {
  %4 = alloca ptr, align 8
  %5 = alloca i32, align 4
  %6 = alloca i32, align 4
  %7 = alloca i32, align 4
  %8 = alloca i32, align 4
  store ptr %0, ptr %4, align 8, !tbaa !25
  store i32 %1, ptr %5, align 4, !tbaa !11
  store i32 %2, ptr %6, align 4, !tbaa !11
  call void @llvm.lifetime.start.p0(i64 4, ptr %7) #7
  call void @llvm.lifetime.start.p0(i64 4, ptr %8) #7
  %9 = load ptr, ptr %4, align 8, !tbaa !25
  %10 = getelementptr inbounds nuw %struct.PutBitContext, ptr %9, i32 0, i32 0
  %11 = load i32, ptr %10, align 8, !tbaa !31
  store i32 %11, ptr %7, align 4, !tbaa !11
  %12 = load ptr, ptr %4, align 8, !tbaa !25
  %13 = getelementptr inbounds nuw %struct.PutBitContext, ptr %12, i32 0, i32 1
  %14 = load i32, ptr %13, align 4, !tbaa !30
  store i32 %14, ptr %8, align 4, !tbaa !11
  %15 = load i32, ptr %6, align 4, !tbaa !11
  %16 = load i32, ptr %8, align 4, !tbaa !11
  %17 = sub nsw i32 32, %16
  %18 = shl i32 %15, %17
  %19 = load i32, ptr %7, align 4, !tbaa !11
  %20 = or i32 %19, %18
  store i32 %20, ptr %7, align 4, !tbaa !11
  %21 = load i32, ptr %5, align 4, !tbaa !11
  %22 = load i32, ptr %8, align 4, !tbaa !11
  %23 = icmp sge i32 %21, %22
  br i1 %23, label %24, label %51

24:                                               ; preds = %3
  %25 = load ptr, ptr %4, align 8, !tbaa !25
  %26 = getelementptr inbounds nuw %struct.PutBitContext, ptr %25, i32 0, i32 4
  %27 = load ptr, ptr %26, align 8, !tbaa !28
  %28 = load ptr, ptr %4, align 8, !tbaa !25
  %29 = getelementptr inbounds nuw %struct.PutBitContext, ptr %28, i32 0, i32 3
  %30 = load ptr, ptr %29, align 8, !tbaa !29
  %31 = ptrtoint ptr %27 to i64
  %32 = ptrtoint ptr %30 to i64
  %33 = sub i64 %31, %32
  %34 = icmp uge i64 %33, 4
  br i1 %34, label %35, label %44

35:                                               ; preds = %24
  %36 = load i32, ptr %7, align 4, !tbaa !11
  %37 = load ptr, ptr %4, align 8, !tbaa !25
  %38 = getelementptr inbounds nuw %struct.PutBitContext, ptr %37, i32 0, i32 3
  %39 = load ptr, ptr %38, align 8, !tbaa !29
  store i32 %36, ptr %39, align 1, !tbaa !32
  %40 = load ptr, ptr %4, align 8, !tbaa !25
  %41 = getelementptr inbounds nuw %struct.PutBitContext, ptr %40, i32 0, i32 3
  %42 = load ptr, ptr %41, align 8, !tbaa !29
  %43 = getelementptr inbounds nuw i8, ptr %42, i64 4
  store ptr %43, ptr %41, align 8, !tbaa !29
  br label %45

44:                                               ; preds = %24
  call void (ptr, i32, ptr, ...) @av_log(ptr noundef null, i32 noundef 16, ptr noundef @.str.3)
  br label %45

45:                                               ; preds = %44, %35
  %46 = load i32, ptr %6, align 4, !tbaa !11
  %47 = load i32, ptr %8, align 4, !tbaa !11
  %48 = lshr i32 %46, %47
  store i32 %48, ptr %7, align 4, !tbaa !11
  %49 = load i32, ptr %8, align 4, !tbaa !11
  %50 = add nsw i32 %49, 32
  store i32 %50, ptr %8, align 4, !tbaa !11
  br label %51

51:                                               ; preds = %45, %3
  %52 = load i32, ptr %5, align 4, !tbaa !11
  %53 = load i32, ptr %8, align 4, !tbaa !11
  %54 = sub nsw i32 %53, %52
  store i32 %54, ptr %8, align 4, !tbaa !11
  %55 = load i32, ptr %7, align 4, !tbaa !11
  %56 = load ptr, ptr %4, align 8, !tbaa !25
  %57 = getelementptr inbounds nuw %struct.PutBitContext, ptr %56, i32 0, i32 0
  store i32 %55, ptr %57, align 8, !tbaa !31
  %58 = load i32, ptr %8, align 4, !tbaa !11
  %59 = load ptr, ptr %4, align 8, !tbaa !25
  %60 = getelementptr inbounds nuw %struct.PutBitContext, ptr %59, i32 0, i32 1
  store i32 %58, ptr %60, align 4, !tbaa !30
  call void @llvm.lifetime.end.p0(i64 4, ptr %8) #7
  call void @llvm.lifetime.end.p0(i64 4, ptr %7) #7
  ret void
}

; Function Attrs: inlinehint nounwind uwtable
define internal i32 @hash(i32 noundef %0, i32 noundef %1) #1 {
  %3 = alloca i32, align 4
  %4 = alloca i32, align 4
  store i32 %0, ptr %3, align 4, !tbaa !11
  store i32 %1, ptr %4, align 4, !tbaa !11
  %5 = load i32, ptr %4, align 4, !tbaa !11
  %6 = shl i32 %5, 6
  %7 = load i32, ptr %3, align 4, !tbaa !11
  %8 = xor i32 %7, %6
  store i32 %8, ptr %3, align 4, !tbaa !11
  %9 = load i32, ptr %3, align 4, !tbaa !11
  %10 = icmp sge i32 %9, 16411
  br i1 %10, label %11, label %14

11:                                               ; preds = %2
  %12 = load i32, ptr %3, align 4, !tbaa !11
  %13 = sub nsw i32 %12, 16411
  store i32 %13, ptr %3, align 4, !tbaa !11
  br label %14

14:                                               ; preds = %11, %2
  %15 = load i32, ptr %3, align 4, !tbaa !11
  ret i32 %15
}

; Function Attrs: inlinehint nounwind uwtable
define internal void @writeCode(ptr noundef %0, i32 noundef %1) #1 {
  %3 = alloca ptr, align 8
  %4 = alloca i32, align 4
  store ptr %0, ptr %3, align 8, !tbaa !4
  store i32 %1, ptr %4, align 4, !tbaa !11
  %5 = load ptr, ptr %3, align 8, !tbaa !4
  %6 = getelementptr inbounds nuw %struct.LZWEncodeState, ptr %5, i32 0, i32 12
  %7 = load i32, ptr %6, align 4, !tbaa !24
  %8 = icmp ne i32 %7, 0
  br i1 %8, label %9, label %16

9:                                                ; preds = %2
  %10 = load ptr, ptr %3, align 8, !tbaa !4
  %11 = getelementptr inbounds nuw %struct.LZWEncodeState, ptr %10, i32 0, i32 6
  %12 = load ptr, ptr %3, align 8, !tbaa !4
  %13 = getelementptr inbounds nuw %struct.LZWEncodeState, ptr %12, i32 0, i32 4
  %14 = load i32, ptr %13, align 8, !tbaa !22
  %15 = load i32, ptr %4, align 4, !tbaa !11
  call void @put_bits_le(ptr noundef %11, i32 noundef %14, i32 noundef %15)
  br label %23

16:                                               ; preds = %2
  %17 = load ptr, ptr %3, align 8, !tbaa !4
  %18 = getelementptr inbounds nuw %struct.LZWEncodeState, ptr %17, i32 0, i32 6
  %19 = load ptr, ptr %3, align 8, !tbaa !4
  %20 = getelementptr inbounds nuw %struct.LZWEncodeState, ptr %19, i32 0, i32 4
  %21 = load i32, ptr %20, align 8, !tbaa !22
  %22 = load i32, ptr %4, align 4, !tbaa !11
  call void @put_bits(ptr noundef %18, i32 noundef %21, i32 noundef %22)
  br label %23

23:                                               ; preds = %16, %9
  ret void
}

; Function Attrs: nounwind uwtable
define internal void @clearTable(ptr noundef %0) #0 {
  %2 = alloca ptr, align 8
  %3 = alloca i32, align 4
  %4 = alloca i32, align 4
  store ptr %0, ptr %2, align 8, !tbaa !4
  call void @llvm.lifetime.start.p0(i64 4, ptr %3) #7
  call void @llvm.lifetime.start.p0(i64 4, ptr %4) #7
  %5 = load ptr, ptr %2, align 8, !tbaa !4
  %6 = load ptr, ptr %2, align 8, !tbaa !4
  %7 = getelementptr inbounds nuw %struct.LZWEncodeState, ptr %6, i32 0, i32 0
  %8 = load i32, ptr %7, align 8, !tbaa !13
  call void @writeCode(ptr noundef %5, i32 noundef %8)
  %9 = load ptr, ptr %2, align 8, !tbaa !4
  %10 = getelementptr inbounds nuw %struct.LZWEncodeState, ptr %9, i32 0, i32 4
  store i32 9, ptr %10, align 8, !tbaa !22
  store i32 0, ptr %3, align 4, !tbaa !11
  br label %11

11:                                               ; preds = %21, %1
  %12 = load i32, ptr %3, align 4, !tbaa !11
  %13 = icmp slt i32 %12, 16411
  br i1 %13, label %14, label %24

14:                                               ; preds = %11
  %15 = load ptr, ptr %2, align 8, !tbaa !4
  %16 = getelementptr inbounds nuw %struct.LZWEncodeState, ptr %15, i32 0, i32 2
  %17 = load i32, ptr %3, align 4, !tbaa !11
  %18 = sext i32 %17 to i64
  %19 = getelementptr inbounds [16411 x %struct.Code], ptr %16, i64 0, i64 %18
  %20 = getelementptr inbounds nuw %struct.Code, ptr %19, i32 0, i32 0
  store i32 -2, ptr %20, align 4, !tbaa !33
  br label %21

21:                                               ; preds = %14
  %22 = load i32, ptr %3, align 4, !tbaa !11
  %23 = add nsw i32 %22, 1
  store i32 %23, ptr %3, align 4, !tbaa !11
  br label %11, !llvm.loop !39

24:                                               ; preds = %11
  store i32 0, ptr %3, align 4, !tbaa !11
  br label %25

25:                                               ; preds = %52, %24
  %26 = load i32, ptr %3, align 4, !tbaa !11
  %27 = icmp slt i32 %26, 256
  br i1 %27, label %28, label %55

28:                                               ; preds = %25
  %29 = load i32, ptr %3, align 4, !tbaa !11
  %30 = call i32 @hash(i32 noundef 0, i32 noundef %29)
  store i32 %30, ptr %4, align 4, !tbaa !11
  %31 = load i32, ptr %3, align 4, !tbaa !11
  %32 = load ptr, ptr %2, align 8, !tbaa !4
  %33 = getelementptr inbounds nuw %struct.LZWEncodeState, ptr %32, i32 0, i32 2
  %34 = load i32, ptr %4, align 4, !tbaa !11
  %35 = sext i32 %34 to i64
  %36 = getelementptr inbounds [16411 x %struct.Code], ptr %33, i64 0, i64 %35
  %37 = getelementptr inbounds nuw %struct.Code, ptr %36, i32 0, i32 1
  store i32 %31, ptr %37, align 4, !tbaa !35
  %38 = load i32, ptr %3, align 4, !tbaa !11
  %39 = trunc i32 %38 to i8
  %40 = load ptr, ptr %2, align 8, !tbaa !4
  %41 = getelementptr inbounds nuw %struct.LZWEncodeState, ptr %40, i32 0, i32 2
  %42 = load i32, ptr %4, align 4, !tbaa !11
  %43 = sext i32 %42 to i64
  %44 = getelementptr inbounds [16411 x %struct.Code], ptr %41, i64 0, i64 %43
  %45 = getelementptr inbounds nuw %struct.Code, ptr %44, i32 0, i32 2
  store i8 %39, ptr %45, align 4, !tbaa !40
  %46 = load ptr, ptr %2, align 8, !tbaa !4
  %47 = getelementptr inbounds nuw %struct.LZWEncodeState, ptr %46, i32 0, i32 2
  %48 = load i32, ptr %4, align 4, !tbaa !11
  %49 = sext i32 %48 to i64
  %50 = getelementptr inbounds [16411 x %struct.Code], ptr %47, i64 0, i64 %49
  %51 = getelementptr inbounds nuw %struct.Code, ptr %50, i32 0, i32 0
  store i32 -1, ptr %51, align 4, !tbaa !33
  br label %52

52:                                               ; preds = %28
  %53 = load i32, ptr %3, align 4, !tbaa !11
  %54 = add nsw i32 %53, 1
  store i32 %54, ptr %3, align 4, !tbaa !11
  br label %25, !llvm.loop !41

55:                                               ; preds = %25
  %56 = load ptr, ptr %2, align 8, !tbaa !4
  %57 = getelementptr inbounds nuw %struct.LZWEncodeState, ptr %56, i32 0, i32 3
  store i32 258, ptr %57, align 4, !tbaa !36
  call void @llvm.lifetime.end.p0(i64 4, ptr %4) #7
  call void @llvm.lifetime.end.p0(i64 4, ptr %3) #7
  ret void
}