; Function Attrs: nounwind uwtable
define internal fastcc void @clearTable(ptr noundef captures(none) %0) unnamed_addr #0 {
  %2 = load i32, ptr %0, align 8, !tbaa !4
  %3 = getelementptr inbounds nuw i8, ptr %0, i64 197004
  %4 = load i32, ptr %3, align 4, !tbaa !25
  %.not.i = icmp eq i32 %4, 0
  %5 = getelementptr inbounds nuw i8, ptr %0, i64 196952
  %6 = getelementptr inbounds nuw i8, ptr %0, i64 196944
  %7 = load i32, ptr %6, align 8, !tbaa !23
  %8 = load i32, ptr %5, align 8, !tbaa !18
  %9 = getelementptr inbounds nuw i8, ptr %0, i64 196956
  %10 = load i32, ptr %9, align 4, !tbaa !17
  br i1 %.not.i, label %32, label %11

11:                                               ; preds = %1
  %12 = sub nsw i32 32, %10
  %13 = shl i32 %2, %12
  %14 = or i32 %13, %8
  %.not.i.i = icmp slt i32 %7, %10
  br i1 %.not.i.i, label %put_bits_le.exit.i, label %15

15:                                               ; preds = %11
  %16 = getelementptr inbounds nuw i8, ptr %0, i64 196976
  %17 = load ptr, ptr %16, align 8, !tbaa !15
  %18 = getelementptr inbounds nuw i8, ptr %0, i64 196968
  %19 = load ptr, ptr %18, align 8, !tbaa !16
  %20 = ptrtoint ptr %17 to i64
  %21 = ptrtoint ptr %19 to i64
  %22 = sub i64 %20, %21
  %23 = icmp ugt i64 %22, 3
  br i1 %23, label %24, label %27

24:                                               ; preds = %15
  store i32 %14, ptr %19, align 1, !tbaa !26
  %25 = load ptr, ptr %18, align 8, !tbaa !16
  %26 = getelementptr inbounds nuw i8, ptr %25, i64 4
  store ptr %26, ptr %18, align 8, !tbaa !16
  br label %28

27:                                               ; preds = %15
  tail call void (ptr, i32, ptr, ...) @av_log(ptr noundef null, i32 noundef 16, ptr noundef nonnull @.str.3) #4
  br label %28

28:                                               ; preds = %27, %24
  %29 = lshr i32 %2, %10
  %30 = add nsw i32 %10, 32
  br label %put_bits_le.exit.i

put_bits_le.exit.i:                               ; preds = %28, %11
  %.020.i.i = phi i32 [ %29, %28 ], [ %14, %11 ]
  %.0.i.i = phi i32 [ %30, %28 ], [ %10, %11 ]
  %31 = sub nsw i32 %.0.i.i, %7
  br label %writeCode.exit

32:                                               ; preds = %1
  %33 = icmp slt i32 %7, %10
  br i1 %33, label %34, label %38

34:                                               ; preds = %32
  %35 = shl i32 %8, %7
  %36 = or i32 %35, %2
  %37 = sub nsw i32 %10, %7
  br label %writeCode.exit

38:                                               ; preds = %32
  %39 = getelementptr inbounds nuw i8, ptr %0, i64 196976
  %40 = load ptr, ptr %39, align 8, !tbaa !15
  %41 = getelementptr inbounds nuw i8, ptr %0, i64 196968
  %42 = load ptr, ptr %41, align 8, !tbaa !16
  %43 = ptrtoint ptr %40 to i64
  %44 = ptrtoint ptr %42 to i64
  %45 = sub i64 %43, %44
  %46 = icmp ugt i64 %45, 3
  br i1 %46, label %47, label %55

47:                                               ; preds = %38
  %48 = shl i32 %8, %10
  %49 = sub nsw i32 %7, %10
  %50 = lshr i32 %2, %49
  %51 = or i32 %50, %48
  %52 = tail call i32 @llvm.bswap.i32(i32 %51)
  store i32 %52, ptr %42, align 1, !tbaa !26
  %53 = load ptr, ptr %41, align 8, !tbaa !16
  %54 = getelementptr inbounds nuw i8, ptr %53, i64 4
  store ptr %54, ptr %41, align 8, !tbaa !16
  br label %56

55:                                               ; preds = %38
  tail call void (ptr, i32, ptr, ...) @av_log(ptr noundef null, i32 noundef 16, ptr noundef nonnull @.str.3) #4
  br label %56

56:                                               ; preds = %55, %47
  %reass.sub = sub i32 %10, %7
  %57 = add i32 %reass.sub, 32
  br label %writeCode.exit

writeCode.exit:                                   ; preds = %put_bits_le.exit.i, %34, %56
  %.026.i.i.sink.i = phi i32 [ %.020.i.i, %put_bits_le.exit.i ], [ %36, %34 ], [ %2, %56 ]
  %.0.i.i.sink.i = phi i32 [ %31, %put_bits_le.exit.i ], [ %37, %34 ], [ %57, %56 ]
  store i32 %.026.i.i.sink.i, ptr %5, align 8, !tbaa !18
  store i32 %.0.i.i.sink.i, ptr %9, align 4, !tbaa !17
  store i32 9, ptr %6, align 8, !tbaa !23
  %58 = getelementptr inbounds nuw i8, ptr %0, i64 8
  br label %59

59:                                               ; preds = %writeCode.exit, %59
  %indvars.iv = phi i64 [ 0, %writeCode.exit ], [ %indvars.iv.next, %59 ]
  %60 = getelementptr inbounds nuw [16411 x %struct.Code], ptr %58, i64 0, i64 %indvars.iv
  store i32 -2, ptr %60, align 4, !tbaa !27
  %indvars.iv.next = add nuw nsw i64 %indvars.iv, 1
  %exitcond.not = icmp eq i64 %indvars.iv.next, 16411
  br i1 %exitcond.not, label %.preheader, label %59, !llvm.loop !35

.preheader:                                       ; preds = %59, %.preheader
  %indvars.iv21 = phi i64 [ %indvars.iv.next22, %.preheader ], [ 0, %59 ]
  %61 = shl nuw nsw i64 %indvars.iv21, 6
  %62 = getelementptr inbounds nuw [16411 x %struct.Code], ptr %58, i64 0, i64 %61
  %63 = getelementptr inbounds nuw i8, ptr %62, i64 4
  %64 = trunc nuw nsw i64 %indvars.iv21 to i32
  store i32 %64, ptr %63, align 4, !tbaa !33
  %65 = trunc i64 %indvars.iv21 to i8
  %66 = getelementptr inbounds nuw i8, ptr %62, i64 8
  store i8 %65, ptr %66, align 4, !tbaa !29
  store i32 -1, ptr %62, align 4, !tbaa !27
  %indvars.iv.next22 = add nuw nsw i64 %indvars.iv21, 1
  %exitcond24.not = icmp eq i64 %indvars.iv.next22, 256
  br i1 %exitcond24.not, label %67, label %.preheader, !llvm.loop !36

67:                                               ; preds = %.preheader
  %68 = getelementptr inbounds nuw i8, ptr %0, i64 196940
  store i32 258, ptr %68, align 4, !tbaa !32
  ret void
}